target datalayout = "e-m:e-p270:32:32-p271:32:32-p272:64:64-i64:64-i128:128-f80:128-n8:16:32:64-S128"
target triple = "x86_64-unknown-linux-gnu"

%class.aiMatrix4x4t = type { float, float, float, float, float, float, float, float, float, float, float, float, float, float, float, float }
%struct.aiNode = type { %struct.aiString, %class.aiMatrix4x4t, ptr, i32, ptr, i32, ptr, ptr }
%struct.aiString = type { i32, [1024 x i8] }

; Function Attrs: mustprogress uwtable
define noundef i32 @_ZNK6Assimp20PretransformVertices10CountNodesEPK6aiNode(ptr noundef nonnull align 8 dereferenceable(93) %this, ptr noundef %pcNode) #3 align 2 {
entry:
  %this.addr = alloca ptr, align 8
  %pcNode.addr = alloca ptr, align 8
  %iRet = alloca i32, align 4
  %i = alloca i32, align 4
  store ptr %this, ptr %this.addr, align 8
  store ptr %pcNode, ptr %pcNode.addr, align 8
  %this1 = load ptr, ptr %this.addr, align 8
  store i32 1, ptr %iRet, align 4
  store i32 0, ptr %i, align 4
  br label %for.cond

for.cond:                                         ; preds = %for.inc, %entry
  %0 = load i32, ptr %i, align 4
  %1 = load ptr, ptr %pcNode.addr, align 8
  %mNumChildren = getelementptr inbounds %struct.aiNode, ptr %1, i32 0, i32 3
  %2 = load i32, ptr %mNumChildren, align 8
  %cmp = icmp ult i32 %0, %2
  br i1 %cmp, label %for.body, label %for.end

for.body:                                         ; preds = %for.cond
  %3 = load ptr, ptr %pcNode.addr, align 8
  %mChildren = getelementptr inbounds %struct.aiNode, ptr %3, i32 0, i32 4
  %4 = load ptr, ptr %mChildren, align 8
  %5 = load i32, ptr %i, align 4
  %idxprom = zext i32 %5 to i64
  %arrayidx = getelementptr inbounds ptr, ptr %4, i64 %idxprom
  %6 = load ptr, ptr %arrayidx, align 8
  %call = call noundef i32 @_ZNK6Assimp20PretransformVertices10CountNodesEPK6aiNode(ptr noundef nonnull align 8 dereferenceable(93) %this1, ptr noundef %6)
  %7 = load i32, ptr %iRet, align 4
  %add = add i32 %7, %call
  store i32 %add, ptr %iRet, align 4
  br label %for.inc

for.inc:                                          ; preds = %for.body
  %8 = load i32, ptr %i, align 4
  %inc = add i32 %8, 1
  store i32 %inc, ptr %i, align 4
  br label %for.cond, !llvm.loop !4

for.end:                                          ; preds = %for.cond
  %9 = load i32, ptr %iRet, align 4
  ret i32 %9
}