; Function Attrs: mustprogress nofree nosync nounwind willreturn memory(read, inaccessiblemem: none) uwtable
define noundef i32 @_ZNK6Assimp20PretransformVertices10CountNodesEPK6aiNode(ptr nocapture noundef nonnull readnone align 8 dereferenceable(93) %this, ptr nocapture noundef readonly %pcNode) local_unnamed_addr #6 align 2 {
entry:
  %mNumChildren = getelementptr inbounds i8, ptr %pcNode, i64 1104
  %0 = load i32, ptr %mNumChildren, align 8
  %cmp5.not = icmp eq i32 %0, 0
  br i1 %cmp5.not, label %for.end, label %for.body.lr.ph

for.body.lr.ph:                                   ; preds = %entry
  %mChildren = getelementptr inbounds i8, ptr %pcNode, i64 1112
  %1 = load ptr, ptr %mChildren, align 8
  %wide.trip.count = zext i32 %0 to i64
  br label %for.body

for.body:                                         ; preds = %for.body.lr.ph, %for.body
  %indvars.iv = phi i64 [ 0, %for.body.lr.ph ], [ %indvars.iv.next, %for.body ]
  %iRet.06 = phi i32 [ 1, %for.body.lr.ph ], [ %add, %for.body ]
  %arrayidx = getelementptr inbounds ptr, ptr %1, i64 %indvars.iv
  %2 = load ptr, ptr %arrayidx, align 8
  %call = tail call noundef i32 @_ZNK6Assimp20PretransformVertices10CountNodesEPK6aiNode(ptr noundef nonnull align 8 dereferenceable(93) %this, ptr noundef %2)
  %add = add i32 %call, %iRet.06
  %indvars.iv.next = add nuw nsw i64 %indvars.iv, 1
  %exitcond.not = icmp eq i64 %indvars.iv.next, %wide.trip.count
  br i1 %exitcond.not, label %for.end, label %for.body, !llvm.loop !4

for.end:                                          ; preds = %for.body, %entry
  %iRet.0.lcssa = phi i32 [ 1, %entry ], [ %add, %for.body ]
  ret i32 %iRet.0.lcssa
}